; Function Attrs: mustprogress uwtable
define hidden void @_ZN6spacer18unsat_core_learner8finalizeEv(ptr nocapture noundef nonnull readonly align 8 dereferenceable(104) %this) local_unnamed_addr #6 align 2 {
entry:
  %m_plugins = getelementptr inbounds i8, ptr %this, i64 24
  %0 = load ptr, ptr %m_plugins, align 8
  %cmp.i.i = icmp eq ptr %0, null
  br i1 %cmp.i.i, label %for.end, label %_ZN6vectorIPN6spacer17unsat_core_pluginELb0EjE3endEv.exit

_ZN6vectorIPN6spacer17unsat_core_pluginELb0EjE3endEv.exit: ; preds = %entry
  %arrayidx.i.i = getelementptr inbounds i8, ptr %0, i64 -4
  %1 = load i32, ptr %arrayidx.i.i, align 4
  %2 = zext i32 %1 to i64
  %add.ptr.i = getelementptr inbounds ptr, ptr %0, i64 %2
  %cmp.not4 = icmp eq i32 %1, 0
  br i1 %cmp.not4, label %for.end, label %for.body

for.body:                                         ; preds = %_ZN6vectorIPN6spacer17unsat_core_pluginELb0EjE3endEv.exit, %for.body
  %__begin1.05 = phi ptr [ %incdec.ptr, %for.body ], [ %0, %_ZN6vectorIPN6spacer17unsat_core_pluginELb0EjE3endEv.exit ]
  %3 = load ptr, ptr %__begin1.05, align 8
  %vtable = load ptr, ptr %3, align 8
  %vfn = getelementptr inbounds i8, ptr %vtable, i64 24
  %4 = load ptr, ptr %vfn, align 8
  tail call void %4(ptr noundef nonnull align 8 dereferenceable(24) %3)
  %incdec.ptr = getelementptr inbounds i8, ptr %__begin1.05, i64 8
  %cmp.not = icmp eq ptr %incdec.ptr, %add.ptr.i
  br i1 %cmp.not, label %for.end, label %for.body

for.end:                                          ; preds = %for.body, %entry, %_ZN6vectorIPN6spacer17unsat_core_pluginELb0EjE3endEv.exit
  ret void
}